; ModuleID = '40/2001.c'
source_filename = "40/2001.c"
target datalayout = "e-m:e-p270:32:32-p271:32:32-p272:64:64-i64:64-f80:128-n8:16:32:64-S128"
target triple = "x86_64-pc-linux-gnu"

@.str = private unnamed_addr constant [13 x i8] c"%lf%lf%lf%lf\00", align 1
@.str.1 = private unnamed_addr constant [7 x i8] c"%lf%lf\00", align 1
@.str.2 = private unnamed_addr constant [14 x i8] c"Invalid input\00", align 1
@.str.3 = private unnamed_addr constant [6 x i8] c"%.4lf\00", align 1

; Function Attrs: noinline nounwind uwtable
define dso_local i32 @main() #0 {
  %1 = alloca i32, align 4
  %2 = alloca double, align 8
  %3 = alloca double, align 8
  %4 = alloca double, align 8
  %5 = alloca double, align 8
  %6 = alloca double, align 8
  %7 = alloca double, align 8
  %8 = alloca double, align 8
  %9 = alloca double, align 8
  %10 = alloca double, align 8
  %11 = alloca double, align 8
  %12 = alloca double, align 8
  store i32 0, i32* %1, align 4
  %13 = call i32 (i8*, ...) @__isoc99_scanf(i8* getelementptr inbounds ([13 x i8], [13 x i8]* @.str, i64 0, i64 0), double* %2, double* %3, double* %4, double* %5)
  %14 = load double, double* %2, align 8
  %15 = load double, double* %3, align 8
  %16 = fadd double %14, %15
  %17 = load double, double* %4, align 8
  %18 = fadd double %16, %17
  %19 = load double, double* %5, align 8
  %20 = fadd double %18, %19
  %21 = fdiv double %20, 2.000000e+00
  store double %21, double* %6, align 8
  %22 = call i32 (i8*, ...) @__isoc99_scanf(i8* getelementptr inbounds ([7 x i8], [7 x i8]* @.str.1, i64 0, i64 0), double* %7, double* %8)
  %23 = load double, double* %7, align 8
  %24 = fdiv double %23, 1.800000e+02
  %25 = fmul double %24, 1.000000e+02
  store double %25, double* %9, align 8
  %26 = load double, double* %8, align 8
  %27 = fdiv double %26, 1.800000e+02
  %28 = fmul double %27, 1.000000e+02
  store double %28, double* %10, align 8
  %29 = load double, double* %6, align 8
  %30 = load double, double* %2, align 8
  %31 = fsub double %29, %30
  %32 = load double, double* %6, align 8
  %33 = load double, double* %3, align 8
  %34 = fsub double %32, %33
  %35 = fmul double %31, %34
  %36 = load double, double* %6, align 8
  %37 = load double, double* %4, align 8
  %38 = fsub double %36, %37
  %39 = fmul double %35, %38
  %40 = load double, double* %6, align 8
  %41 = load double, double* %5, align 8
  %42 = fsub double %40, %41
  %43 = fmul double %39, %42
  %44 = load double, double* %2, align 8
  %45 = load double, double* %3, align 8
  %46 = fmul double %44, %45
  %47 = load double, double* %4, align 8
  %48 = fmul double %46, %47
  %49 = load double, double* %5, align 8
  %50 = fmul double %48, %49
  %51 = load double, double* %9, align 8
  %52 = fdiv double %51, 2.000000e+00
  %53 = load double, double* %10, align 8
  %54 = fdiv double %53, 2.000000e+00
  %55 = fadd double %52, %54
  %56 = call double @cos(double %55) #3
  %57 = fmul double %50, %56
  %58 = load double, double* %9, align 8
  %59 = fdiv double %58, 2.000000e+00
  %60 = load double, double* %10, align 8
  %61 = fdiv double %60, 2.000000e+00
  %62 = fadd double %59, %61
  %63 = call double @cos(double %62) #3
  %64 = fmul double %57, %63
  %65 = fsub double %43, %64
  store double %65, double* %12, align 8
  %66 = load double, double* %12, align 8
  %67 = fcmp olt double %66, 0.000000e+00
  br i1 %67, label %68, label %70

68:                                               ; preds = %0
  %69 = call i32 (i8*, ...) @printf(i8* getelementptr inbounds ([14 x i8], [14 x i8]* @.str.2, i64 0, i64 0))
  br label %75

70:                                               ; preds = %0
  %71 = load double, double* %12, align 8
  %72 = call double @sqrt(double %71) #3
  store double %72, double* %11, align 8
  %73 = load double, double* %11, align 8
  %74 = call i32 (i8*, ...) @printf(i8* getelementptr inbounds ([6 x i8], [6 x i8]* @.str.3, i64 0, i64 0), double %73)
  br label %75

75:                                               ; preds = %70, %68
  ret i32 0
}

declare dso_local i32 @__isoc99_scanf(i8*, ...) #1

; Function Attrs: nounwind
declare dso_local double @cos(double) #2

declare dso_local i32 @printf(i8*, ...) #1

; Function Attrs: nounwind
declare dso_local double @sqrt(double) #2


!llvm.module.flags = !{!0}
!llvm.ident = !{!1}

!0 = !{i32 1, !"wchar_size", i32 4}
!1 = !{!"clang version 10.0.0-4ubuntu1 "}
